target datalayout = "e-m:e-p270:32:32-p271:32:32-p272:64:64-i64:64-i128:128-f80:128-n8:16:32:64-S128"
target triple = "x86_64-pc-linux-gnu"

; Function Attrs: mustprogress uwtable
define hidden noundef zeroext i1 @_ZNK4cvc58internal6theory13SortInference16isHandledApplyUfENS0_4kind6Kind_tE(ptr noundef nonnull align 8 dereferenceable(648) %0, i32 noundef %1) #4 align 2 {
  %3 = alloca ptr, align 8
  %4 = alloca i32, align 4
  store ptr %0, ptr %3, align 8, !tbaa !82
  store i32 %1, ptr %4, align 4, !tbaa !497
  %5 = load ptr, ptr %3, align 8
  %6 = load i32, ptr %4, align 4, !tbaa !497
  %7 = icmp eq i32 %6, 27
  br i1 %7, label %8, label %12

8:                                                ; preds = %2
  %9 = call noundef nonnull align 8 dereferenceable(88) ptr @_ZNK4cvc58internal6EnvObj9logicInfoEv(ptr noundef nonnull align 8 dereferenceable(16) %5)
  %10 = call noundef zeroext i1 @_ZNK4cvc58internal9LogicInfo13isHigherOrderEv(ptr noundef nonnull align 8 dereferenceable(88) %9)
  %11 = xor i1 %10, true
  br label %12

12:                                               ; preds = %8, %2
  %13 = phi i1 [ false, %2 ], [ %11, %8 ]
  ret i1 %13
}