; Function Attrs: mustprogress uwtable
define hidden noundef zeroext i1 @_ZNK4cvc58internal6theory13SortInference16isHandledApplyUfENS0_4kind6Kind_tE(ptr noundef nonnull align 8 dereferenceable(648) %0, i32 noundef %1) local_unnamed_addr #6 align 2 {
  %3 = icmp eq i32 %1, 27
  br i1 %3, label %4, label %8

4:                                                ; preds = %2
  %5 = tail call noundef nonnull align 8 dereferenceable(88) ptr @_ZNK4cvc58internal6EnvObj9logicInfoEv(ptr noundef nonnull align 8 dereferenceable(16) %0)
  %6 = tail call noundef zeroext i1 @_ZNK4cvc58internal9LogicInfo13isHigherOrderEv(ptr noundef nonnull align 8 dereferenceable(88) %5)
  %7 = xor i1 %6, true
  br label %8

8:                                                ; preds = %4, %2
  %9 = phi i1 [ false, %2 ], [ %7, %4 ]
  ret i1 %9
}